target datalayout = "e-m:e-p270:32:32-p271:32:32-p272:64:64-i64:64-i128:128-f80:128-n8:16:32:64-S128"
target triple = "x86_64-pc-linux-gnu"

@_ZL14invariantChars = internal constant [4 x i32] [i32 -1025, i32 -27, i32 -2013265922, i32 -2013265922], align 16

; Function Attrs: mustprogress nounwind uwtable
define void @u_UCharsToChars_77(ptr noundef %0, ptr noundef %1, i32 noundef %2) #0 {
  %4 = alloca ptr, align 8
  %5 = alloca ptr, align 8
  %6 = alloca i32, align 4
  %7 = alloca i16, align 2
  store ptr %0, ptr %4, align 8, !tbaa !8
  store ptr %1, ptr %5, align 8, !tbaa !3
  store i32 %2, ptr %6, align 4, !tbaa !10
  call void @llvm.lifetime.start.p0(i64 2, ptr %7) #7
  br label %8

8:                                                ; preds = %32, %3
  %9 = load i32, ptr %6, align 4, !tbaa !10
  %10 = icmp sgt i32 %9, 0
  br i1 %10, label %11, label %39

11:                                               ; preds = %8
  %12 = load ptr, ptr %4, align 8, !tbaa !8
  %13 = getelementptr inbounds nuw i16, ptr %12, i32 1
  store ptr %13, ptr %4, align 8, !tbaa !8
  %14 = load i16, ptr %12, align 2, !tbaa !13
  store i16 %14, ptr %7, align 2, !tbaa !13
  %15 = load i16, ptr %7, align 2, !tbaa !13
  %16 = zext i16 %15 to i32
  %17 = icmp sle i32 %16, 127
  br i1 %17, label %18, label %31

18:                                               ; preds = %11
  %19 = load i16, ptr %7, align 2, !tbaa !13
  %20 = zext i16 %19 to i32
  %21 = ashr i32 %20, 5
  %22 = sext i32 %21 to i64
  %23 = getelementptr inbounds [4 x i32], ptr @_ZL14invariantChars, i64 0, i64 %22
  %24 = load i32, ptr %23, align 4, !tbaa !10
  %25 = load i16, ptr %7, align 2, !tbaa !13
  %26 = zext i16 %25 to i32
  %27 = and i32 %26, 31
  %28 = shl i32 1, %27
  %29 = and i32 %24, %28
  %30 = icmp ne i32 %29, 0
  br i1 %30, label %32, label %31

31:                                               ; preds = %18, %11
  store i16 0, ptr %7, align 2, !tbaa !13
  br label %32

32:                                               ; preds = %31, %18
  %33 = load i16, ptr %7, align 2, !tbaa !13
  %34 = trunc i16 %33 to i8
  %35 = load ptr, ptr %5, align 8, !tbaa !3
  %36 = getelementptr inbounds nuw i8, ptr %35, i32 1
  store ptr %36, ptr %5, align 8, !tbaa !3
  store i8 %34, ptr %35, align 1, !tbaa !12
  %37 = load i32, ptr %6, align 4, !tbaa !10
  %38 = add nsw i32 %37, -1
  store i32 %38, ptr %6, align 4, !tbaa !10
  br label %8, !llvm.loop !17

39:                                               ; preds = %8
  call void @llvm.lifetime.end.p0(i64 2, ptr %7) #7
  ret void
}