; Function Attrs: mustprogress nofree norecurse nosync nounwind memory(argmem: readwrite) uwtable
define void @u_UCharsToChars_77(ptr noundef readonly captures(none) %0, ptr noundef writeonly captures(none) %1, i32 noundef %2) local_unnamed_addr #0 {
  %4 = icmp sgt i32 %2, 0
  br i1 %4, label %.lr.ph, label %._crit_edge

.lr.ph:                                           ; preds = %3, %18
  %.0713 = phi i32 [ %21, %18 ], [ %2, %3 ]
  %.0812 = phi ptr [ %20, %18 ], [ %1, %3 ]
  %.0911 = phi ptr [ %5, %18 ], [ %0, %3 ]
  %5 = getelementptr inbounds nuw i8, ptr %.0911, i64 2
  %6 = load i16, ptr %.0911, align 2, !tbaa !6
  %7 = icmp ult i16 %6, 128
  br i1 %7, label %8, label %17

8:                                                ; preds = %.lr.ph
  %9 = zext nneg i16 %6 to i32
  %10 = lshr i32 %9, 5
  %11 = zext nneg i32 %10 to i64
  %12 = getelementptr inbounds nuw [4 x i32], ptr @_ZL14invariantChars, i64 0, i64 %11
  %13 = load i32, ptr %12, align 4, !tbaa !10
  %14 = and i32 %9, 31
  %15 = shl nuw i32 1, %14
  %16 = and i32 %13, %15
  %.not = icmp eq i32 %16, 0
  br i1 %.not, label %17, label %18

17:                                               ; preds = %8, %.lr.ph
  br label %18

18:                                               ; preds = %17, %8
  %.0 = phi i16 [ %6, %8 ], [ 0, %17 ]
  %19 = trunc nuw i16 %.0 to i8
  %20 = getelementptr inbounds nuw i8, ptr %.0812, i64 1
  store i8 %19, ptr %.0812, align 1, !tbaa !3
  %21 = add nsw i32 %.0713, -1
  %22 = icmp sgt i32 %.0713, 1
  br i1 %22, label %.lr.ph, label %._crit_edge, !llvm.loop !12

._crit_edge:                                      ; preds = %18, %3
  ret void
}